target datalayout = "e-m:e-p270:32:32-p271:32:32-p272:64:64-i64:64-i128:128-f80:128-n8:16:32:64-S128"
target triple = "x86_64-unknown-linux-gnu"

%class.rewriter_core = type { ptr, ptr, i8, i8, %class.ptr_vector, ptr, %class.svector.1, %class.ref_vector, %class.ptr_vector, ptr, %class.ref_vector.5, %class.obj_hashtable, ptr, i32, %class.svector.10 }
%class.svector.1 = type { %class.vector.2 }
%class.vector.2 = type { ptr }
%class.ref_vector = type { %class.ref_vector_core }
%class.ref_vector_core = type { %class.ref_manager_wrapper, %class.ptr_vector.3 }
%class.ref_manager_wrapper = type { ptr }
%class.ptr_vector.3 = type { %class.vector.4 }
%class.vector.4 = type { ptr }
%class.ptr_vector = type { %class.vector.0 }
%class.vector.0 = type { ptr }
%class.ref_vector.5 = type { %class.ref_vector_core.6 }
%class.ref_vector_core.6 = type { %class.ref_manager_wrapper.7, %class.ptr_vector.8 }
%class.ref_manager_wrapper.7 = type { ptr }
%class.ptr_vector.8 = type { %class.vector.9 }
%class.vector.9 = type { ptr }
%class.obj_hashtable = type { %class.core_hashtable.base, [4 x i8] }
%class.core_hashtable.base = type <{ ptr, i32, i32, i32 }>
%class.svector.10 = type { %class.vector.11 }
%class.vector.11 = type { ptr }

; Function Attrs: mustprogress nounwind uwtable
define linkonce_odr hidden noundef nonnull align 8 dereferenceable(8) ptr @_ZN6vectorIP9act_cacheLb0EjEixEj(ptr noundef nonnull align 8 dereferenceable(8) %this, i32 noundef %idx) #5 comdat align 2 {
entry:
  %this.addr = alloca ptr, align 8
  %idx.addr = alloca i32, align 4
  store ptr %this, ptr %this.addr, align 8
  store i32 %idx, ptr %idx.addr, align 4
  %this1 = load ptr, ptr %this.addr, align 8
  %m_data = getelementptr inbounds %class.vector.0, ptr %this1, i32 0, i32 0
  %0 = load ptr, ptr %m_data, align 8
  %1 = load i32, ptr %idx.addr, align 4
  %idxprom = zext i32 %1 to i64
  %arrayidx = getelementptr inbounds ptr, ptr %0, i64 %idxprom
  ret ptr %arrayidx
}

; Function Attrs: mustprogress uwtable
define hidden void @_ZN13rewriter_core11reset_cacheEv(ptr noundef nonnull align 8 dereferenceable(144) %this) #4 align 2 {
entry:
  %this.addr = alloca ptr, align 8
  store ptr %this, ptr %this.addr, align 8
  %this1 = load ptr, ptr %this.addr, align 8
  %m_cache_stack = getelementptr inbounds %class.rewriter_core, ptr %this1, i32 0, i32 4
  %call = call noundef nonnull align 8 dereferenceable(8) ptr @_ZN6vectorIP9act_cacheLb0EjEixEj(ptr noundef nonnull align 8 dereferenceable(8) %m_cache_stack, i32 noundef 0)
  %0 = load ptr, ptr %call, align 8
  %m_cache = getelementptr inbounds %class.rewriter_core, ptr %this1, i32 0, i32 5
  store ptr %0, ptr %m_cache, align 8
  %m_cache2 = getelementptr inbounds %class.rewriter_core, ptr %this1, i32 0, i32 5
  %1 = load ptr, ptr %m_cache2, align 8
  call void @_ZN9act_cache5resetEv(ptr noundef nonnull align 8 dereferenceable(92) %1)
  %m_proof_gen = getelementptr inbounds %class.rewriter_core, ptr %this1, i32 0, i32 2
  %2 = load i8, ptr %m_proof_gen, align 8
  %tobool = trunc i8 %2 to i1
  br i1 %tobool, label %if.then, label %if.end

if.then:                                          ; preds = %entry
  %m_cache_pr_stack = getelementptr inbounds %class.rewriter_core, ptr %this1, i32 0, i32 8
  %call3 = call noundef nonnull align 8 dereferenceable(8) ptr @_ZN6vectorIP9act_cacheLb0EjEixEj(ptr noundef nonnull align 8 dereferenceable(8) %m_cache_pr_stack, i32 noundef 0)
  %3 = load ptr, ptr %call3, align 8
  %m_cache_pr = getelementptr inbounds %class.rewriter_core, ptr %this1, i32 0, i32 9
  store ptr %3, ptr %m_cache_pr, align 8
  %m_cache_pr4 = getelementptr inbounds %class.rewriter_core, ptr %this1, i32 0, i32 9
  %4 = load ptr, ptr %m_cache_pr4, align 8
  call void @_ZN9act_cache5resetEv(ptr noundef nonnull align 8 dereferenceable(92) %4)
  br label %if.end

if.end:                                           ; preds = %if.then, %entry
  ret void
}