; Function Attrs: mustprogress uwtable
define hidden void @_ZN13rewriter_core11reset_cacheEv(ptr nocapture noundef nonnull align 8 dereferenceable(144) %this) local_unnamed_addr #3 align 2 {
entry:
  %m_cache_stack = getelementptr inbounds i8, ptr %this, i64 24
  %0 = load ptr, ptr %m_cache_stack, align 8
  %1 = load ptr, ptr %0, align 8
  %m_cache = getelementptr inbounds i8, ptr %this, i64 32
  store ptr %1, ptr %m_cache, align 8
  tail call void @_ZN9act_cache5resetEv(ptr noundef nonnull align 8 dereferenceable(92) %1)
  %m_proof_gen = getelementptr inbounds i8, ptr %this, i64 16
  %2 = load i8, ptr %m_proof_gen, align 8
  %3 = and i8 %2, 1
  %tobool.not = icmp eq i8 %3, 0
  br i1 %tobool.not, label %if.end, label %if.then

if.then:                                          ; preds = %entry
  %m_cache_pr_stack = getelementptr inbounds i8, ptr %this, i64 64
  %4 = load ptr, ptr %m_cache_pr_stack, align 8
  %5 = load ptr, ptr %4, align 8
  %m_cache_pr = getelementptr inbounds i8, ptr %this, i64 72
  store ptr %5, ptr %m_cache_pr, align 8
  tail call void @_ZN9act_cache5resetEv(ptr noundef nonnull align 8 dereferenceable(92) %5)
  br label %if.end

if.end:                                           ; preds = %if.then, %entry
  ret void
}